target datalayout = "e-m:e-p270:32:32-p271:32:32-p272:64:64-i64:64-i128:128-f80:128-n8:16:32:64-S128"
target triple = "x86_64-pc-linux-gnu"

%struct.dt_pthread_mutex_t = type { %union.pthread_mutex_t }
%union.pthread_mutex_t = type { %struct.__pthread_mutex_s }
%struct.__pthread_mutex_s = type { i32, i32, i32, i32, i32, i16, i16, %struct.__pthread_internal_list }
%struct.__pthread_internal_list = type { ptr, ptr }
%struct.dt_iop_module_t = type { i32, ptr, ptr, ptr, ptr, ptr, ptr, ptr, ptr, ptr, ptr, ptr, ptr, ptr, ptr, ptr, ptr, ptr, ptr, ptr, ptr, ptr, ptr, ptr, ptr, ptr, ptr, ptr, ptr, ptr, ptr, ptr, ptr, ptr, ptr, ptr, ptr, ptr, ptr, ptr, ptr, ptr, ptr, ptr, ptr, ptr, ptr, ptr, ptr, ptr, ptr, ptr, ptr, ptr, ptr, ptr, ptr, [20 x i8], i32, i32, i32, i32, i32, i32, i32, [8 x i8], [4 x float], [4 x float], [4 x float], [4 x float], [4 x float], [4 x float], ptr, %struct.dt_dev_histogram_stats_t, [4 x i32], i32, i32, ptr, i32, i32, ptr, ptr, i32, ptr, %struct.dt_pthread_mutex_t, ptr, ptr, ptr, ptr, %struct.anon, ptr, ptr, ptr, ptr, ptr, ptr, ptr, i32, ptr, ptr, ptr, ptr, ptr, ptr, ptr, i32, ptr, i32, [128 x i8], i32, ptr, ptr, i32, [12 x i8] }
%struct.dt_dev_histogram_stats_t = type { i32, i64, i32, i32 }
%struct.anon = type { %struct.anon.0, %struct.anon.1 }
%struct.anon.0 = type { ptr, ptr }
%struct.anon.1 = type { ptr, i32 }
%struct.dt_iop_rgblevels_gui_data_t = type { %struct.dt_iop_rgblevels_params_t, ptr, ptr, ptr, ptr, ptr, ptr, i32, i32, float, float, float, float, [4 x float], i32, double, double, i32, i32, float, i32, float, ptr, ptr, ptr }
%struct.dt_iop_rgblevels_params_t = type { i32, i32, [3 x [3 x float]] }

; Function Attrs: nounwind uwtable
define void @gui_post_expose(ptr noundef %0, ptr noundef %1, float noundef %2, float noundef %3, float noundef %4, float noundef %5, float noundef %6) #0 {
  %8 = alloca ptr, align 8
  %9 = alloca ptr, align 8
  %10 = alloca float, align 4
  %11 = alloca float, align 4
  %12 = alloca float, align 4
  %13 = alloca float, align 4
  %14 = alloca float, align 4
  %15 = alloca ptr, align 8
  %16 = alloca i32, align 4
  %17 = alloca float, align 4
  %18 = alloca float, align 4
  %19 = alloca float, align 4
  %20 = alloca float, align 4
  store ptr %0, ptr %8, align 8, !tbaa !6
  store ptr %1, ptr %9, align 8, !tbaa !121
  store float %2, ptr %10, align 4, !tbaa !15
  store float %3, ptr %11, align 4, !tbaa !15
  store float %4, ptr %12, align 4, !tbaa !15
  store float %5, ptr %13, align 4, !tbaa !15
  store float %6, ptr %14, align 4, !tbaa !15
  call void @llvm.lifetime.start.p0(i64 8, ptr %15) #13
  %21 = load ptr, ptr %8, align 8, !tbaa !6
  %22 = getelementptr inbounds nuw %struct.dt_iop_module_t, ptr %21, i32 0, i32 83
  %23 = load ptr, ptr %22, align 16, !tbaa !21
  store ptr %23, ptr %15, align 8, !tbaa !37
  %24 = load ptr, ptr %15, align 8, !tbaa !37
  %25 = icmp eq ptr %24, null
  br i1 %25, label %31, label %26

26:                                               ; preds = %7
  %27 = load ptr, ptr %8, align 8, !tbaa !6
  %28 = getelementptr inbounds nuw %struct.dt_iop_module_t, ptr %27, i32 0, i32 78
  %29 = load i32, ptr %28, align 16, !tbaa !45
  %30 = icmp ne i32 %29, 0
  br i1 %30, label %32, label %31

31:                                               ; preds = %26, %7
  store i32 1, ptr %16, align 4
  br label %155

32:                                               ; preds = %26
  %33 = load ptr, ptr %15, align 8, !tbaa !37
  %34 = getelementptr inbounds nuw %struct.dt_iop_rgblevels_gui_data_t, ptr %33, i32 0, i32 8
  %35 = load i32, ptr %34, align 4, !tbaa !39
  %36 = icmp ne i32 %35, 0
  br i1 %36, label %37, label %42

37:                                               ; preds = %32
  %38 = load ptr, ptr %15, align 8, !tbaa !37
  %39 = getelementptr inbounds nuw %struct.dt_iop_rgblevels_gui_data_t, ptr %38, i32 0, i32 14
  %40 = load i32, ptr %39, align 8, !tbaa !44
  %41 = icmp ne i32 %40, 0
  br i1 %41, label %43, label %42

42:                                               ; preds = %37, %32
  store i32 1, ptr %16, align 4
  br label %155

43:                                               ; preds = %37
  %44 = load ptr, ptr %15, align 8, !tbaa !37
  %45 = getelementptr inbounds nuw %struct.dt_iop_rgblevels_gui_data_t, ptr %44, i32 0, i32 9
  %46 = load float, ptr %45, align 8, !tbaa !49
  %47 = load ptr, ptr %15, align 8, !tbaa !37
  %48 = getelementptr inbounds nuw %struct.dt_iop_rgblevels_gui_data_t, ptr %47, i32 0, i32 10
  %49 = load float, ptr %48, align 4, !tbaa !47
  %50 = fcmp reassoc nsz arcp contract afn oeq float %46, %49
  br i1 %50, label %51, label %60

51:                                               ; preds = %43
  %52 = load ptr, ptr %15, align 8, !tbaa !37
  %53 = getelementptr inbounds nuw %struct.dt_iop_rgblevels_gui_data_t, ptr %52, i32 0, i32 11
  %54 = load float, ptr %53, align 8, !tbaa !50
  %55 = load ptr, ptr %15, align 8, !tbaa !37
  %56 = getelementptr inbounds nuw %struct.dt_iop_rgblevels_gui_data_t, ptr %55, i32 0, i32 12
  %57 = load float, ptr %56, align 4, !tbaa !48
  %58 = fcmp reassoc nsz arcp contract afn oeq float %54, %57
  br i1 %58, label %59, label %60

59:                                               ; preds = %51
  store i32 1, ptr %16, align 4
  br label %155

60:                                               ; preds = %51, %43
  call void @llvm.lifetime.start.p0(i64 4, ptr %17) #13
  %61 = load ptr, ptr %15, align 8, !tbaa !37
  %62 = getelementptr inbounds nuw %struct.dt_iop_rgblevels_gui_data_t, ptr %61, i32 0, i32 9
  %63 = load float, ptr %62, align 8, !tbaa !49
  %64 = fpext reassoc nsz arcp contract afn float %63 to double
  %65 = load ptr, ptr %15, align 8, !tbaa !37
  %66 = getelementptr inbounds nuw %struct.dt_iop_rgblevels_gui_data_t, ptr %65, i32 0, i32 10
  %67 = load float, ptr %66, align 4, !tbaa !47
  %68 = fpext reassoc nsz arcp contract afn float %67 to double
  %69 = call reassoc nsz arcp contract afn double @llvm.minnum.f64(double %64, double %68)
  %70 = fptrunc reassoc nsz arcp contract afn double %69 to float
  store float %70, ptr %17, align 4, !tbaa !15
  call void @llvm.lifetime.start.p0(i64 4, ptr %18) #13
  %71 = load ptr, ptr %15, align 8, !tbaa !37
  %72 = getelementptr inbounds nuw %struct.dt_iop_rgblevels_gui_data_t, ptr %71, i32 0, i32 9
  %73 = load float, ptr %72, align 8, !tbaa !49
  %74 = fpext reassoc nsz arcp contract afn float %73 to double
  %75 = load ptr, ptr %15, align 8, !tbaa !37
  %76 = getelementptr inbounds nuw %struct.dt_iop_rgblevels_gui_data_t, ptr %75, i32 0, i32 10
  %77 = load float, ptr %76, align 4, !tbaa !47
  %78 = fpext reassoc nsz arcp contract afn float %77 to double
  %79 = call reassoc nsz arcp contract afn double @llvm.maxnum.f64(double %74, double %78)
  %80 = fptrunc reassoc nsz arcp contract afn double %79 to float
  store float %80, ptr %18, align 4, !tbaa !15
  call void @llvm.lifetime.start.p0(i64 4, ptr %19) #13
  %81 = load ptr, ptr %15, align 8, !tbaa !37
  %82 = getelementptr inbounds nuw %struct.dt_iop_rgblevels_gui_data_t, ptr %81, i32 0, i32 11
  %83 = load float, ptr %82, align 8, !tbaa !50
  %84 = fpext reassoc nsz arcp contract afn float %83 to double
  %85 = load ptr, ptr %15, align 8, !tbaa !37
  %86 = getelementptr inbounds nuw %struct.dt_iop_rgblevels_gui_data_t, ptr %85, i32 0, i32 12
  %87 = load float, ptr %86, align 4, !tbaa !48
  %88 = fpext reassoc nsz arcp contract afn float %87 to double
  %89 = call reassoc nsz arcp contract afn double @llvm.minnum.f64(double %84, double %88)
  %90 = fptrunc reassoc nsz arcp contract afn double %89 to float
  store float %90, ptr %19, align 4, !tbaa !15
  call void @llvm.lifetime.start.p0(i64 4, ptr %20) #13
  %91 = load ptr, ptr %15, align 8, !tbaa !37
  %92 = getelementptr inbounds nuw %struct.dt_iop_rgblevels_gui_data_t, ptr %91, i32 0, i32 11
  %93 = load float, ptr %92, align 8, !tbaa !50
  %94 = fpext reassoc nsz arcp contract afn float %93 to double
  %95 = load ptr, ptr %15, align 8, !tbaa !37
  %96 = getelementptr inbounds nuw %struct.dt_iop_rgblevels_gui_data_t, ptr %95, i32 0, i32 12
  %97 = load float, ptr %96, align 4, !tbaa !48
  %98 = fpext reassoc nsz arcp contract afn float %97 to double
  %99 = call reassoc nsz arcp contract afn double @llvm.maxnum.f64(double %94, double %98)
  %100 = fptrunc reassoc nsz arcp contract afn double %99 to float
  store float %100, ptr %20, align 4, !tbaa !15
  %101 = load ptr, ptr %9, align 8, !tbaa !121
  %102 = load float, ptr %14, align 4, !tbaa !15
  %103 = fpext reassoc nsz arcp contract afn float %102 to double
  %104 = fdiv reassoc nsz arcp contract afn double 1.000000e+00, %103
  call void @cairo_set_line_width(ptr noundef %101, double noundef %104)
  %105 = load ptr, ptr %9, align 8, !tbaa !121
  call void @cairo_set_source_rgb(ptr noundef %105, double noundef 2.000000e-01, double noundef 2.000000e-01, double noundef 2.000000e-01)
  %106 = load ptr, ptr %9, align 8, !tbaa !121
  call void @cairo_set_line_cap(ptr noundef %106, i32 noundef 1)
  %107 = load ptr, ptr %9, align 8, !tbaa !121
  %108 = load float, ptr %17, align 4, !tbaa !15
  %109 = fpext reassoc nsz arcp contract afn float %108 to double
  %110 = load float, ptr %19, align 4, !tbaa !15
  %111 = fpext reassoc nsz arcp contract afn float %110 to double
  %112 = load float, ptr %18, align 4, !tbaa !15
  %113 = load float, ptr %17, align 4, !tbaa !15
  %114 = fsub reassoc nsz arcp contract afn float %112, %113
  %115 = fpext reassoc nsz arcp contract afn float %114 to double
  %116 = load float, ptr %20, align 4, !tbaa !15
  %117 = load float, ptr %19, align 4, !tbaa !15
  %118 = fsub reassoc nsz arcp contract afn float %116, %117
  %119 = fpext reassoc nsz arcp contract afn float %118 to double
  call void @cairo_rectangle(ptr noundef %107, double noundef %109, double noundef %111, double noundef %115, double noundef %119)
  %120 = load ptr, ptr %9, align 8, !tbaa !121
  call void @cairo_stroke(ptr noundef %120)
  %121 = load ptr, ptr %9, align 8, !tbaa !121
  %122 = load float, ptr %14, align 4, !tbaa !15
  %123 = fpext reassoc nsz arcp contract afn float %122 to double
  %124 = fdiv reassoc nsz arcp contract afn double 1.000000e+00, %123
  %125 = load float, ptr %14, align 4, !tbaa !15
  %126 = fpext reassoc nsz arcp contract afn float %125 to double
  %127 = fdiv reassoc nsz arcp contract afn double 1.000000e+00, %126
  call void @cairo_translate(ptr noundef %121, double noundef %124, double noundef %127)
  %128 = load ptr, ptr %9, align 8, !tbaa !121
  call void @cairo_set_source_rgb(ptr noundef %128, double noundef 8.000000e-01, double noundef 8.000000e-01, double noundef 8.000000e-01)
  %129 = load ptr, ptr %9, align 8, !tbaa !121
  %130 = load float, ptr %17, align 4, !tbaa !15
  %131 = fpext reassoc nsz arcp contract afn float %130 to double
  %132 = load float, ptr %14, align 4, !tbaa !15
  %133 = fpext reassoc nsz arcp contract afn float %132 to double
  %134 = fdiv reassoc nsz arcp contract afn double 1.000000e+00, %133
  %135 = fadd reassoc nsz arcp contract afn double %131, %134
  %136 = load float, ptr %19, align 4, !tbaa !15
  %137 = fpext reassoc nsz arcp contract afn float %136 to double
  %138 = load float, ptr %18, align 4, !tbaa !15
  %139 = load float, ptr %17, align 4, !tbaa !15
  %140 = fsub reassoc nsz arcp contract afn float %138, %139
  %141 = fpext reassoc nsz arcp contract afn float %140 to double
  %142 = load float, ptr %14, align 4, !tbaa !15
  %143 = fpext reassoc nsz arcp contract afn float %142 to double
  %144 = fdiv reassoc nsz arcp contract afn double 3.000000e+00, %143
  %145 = fsub reassoc nsz arcp contract afn double %141, %144
  %146 = load float, ptr %20, align 4, !tbaa !15
  %147 = load float, ptr %19, align 4, !tbaa !15
  %148 = fsub reassoc nsz arcp contract afn float %146, %147
  %149 = fpext reassoc nsz arcp contract afn float %148 to double
  %150 = load float, ptr %14, align 4, !tbaa !15
  %151 = fpext reassoc nsz arcp contract afn float %150 to double
  %152 = fdiv reassoc nsz arcp contract afn double 2.000000e+00, %151
  %153 = fsub reassoc nsz arcp contract afn double %149, %152
  call void @cairo_rectangle(ptr noundef %129, double noundef %135, double noundef %137, double noundef %145, double noundef %153)
  %154 = load ptr, ptr %9, align 8, !tbaa !121
  call void @cairo_stroke(ptr noundef %154)
  call void @llvm.lifetime.end.p0(i64 4, ptr %20) #13
  call void @llvm.lifetime.end.p0(i64 4, ptr %19) #13
  call void @llvm.lifetime.end.p0(i64 4, ptr %18) #13
  call void @llvm.lifetime.end.p0(i64 4, ptr %17) #13
  store i32 0, ptr %16, align 4
  br label %155

155:                                              ; preds = %60, %59, %42, %31
  call void @llvm.lifetime.end.p0(i64 8, ptr %15) #13
  %156 = load i32, ptr %16, align 4
  switch i32 %156, label %158 [
    i32 0, label %157
    i32 1, label %157
  ]

157:                                              ; preds = %155, %155
  ret void

158:                                              ; preds = %155
  unreachable
}