; Function Attrs: nounwind uwtable
define void @gui_post_expose(ptr noundef readonly captures(none) %0, ptr noundef %1, float noundef %2, float noundef %3, float noundef %4, float noundef %5, float noundef %6) local_unnamed_addr #1 {
  %8 = getelementptr inbounds nuw i8, ptr %0, i64 704
  %9 = load ptr, ptr %8, align 16, !tbaa !6
  %10 = icmp eq ptr %9, null
  br i1 %10, label %56, label %11

11:                                               ; preds = %7
  %12 = getelementptr inbounds nuw i8, ptr %0, i64 672
  %13 = load i32, ptr %12, align 16, !tbaa !35
  %.not = icmp eq i32 %13, 0
  br i1 %.not, label %56, label %14

14:                                               ; preds = %11
  %15 = getelementptr inbounds nuw i8, ptr %9, i64 100
  %16 = load i32, ptr %15, align 4, !tbaa !27
  %.not44 = icmp eq i32 %16, 0
  br i1 %.not44, label %56, label %17

17:                                               ; preds = %14
  %18 = getelementptr inbounds nuw i8, ptr %9, i64 136
  %19 = load i32, ptr %18, align 8, !tbaa !34
  %.not45 = icmp eq i32 %19, 0
  br i1 %.not45, label %56, label %20

20:                                               ; preds = %17
  %21 = getelementptr inbounds nuw i8, ptr %9, i64 104
  %22 = load float, ptr %21, align 8, !tbaa !40
  %23 = getelementptr inbounds nuw i8, ptr %9, i64 108
  %24 = load float, ptr %23, align 4, !tbaa !38
  %25 = fcmp reassoc nsz arcp contract afn oeq float %22, %24
  %26 = getelementptr inbounds nuw i8, ptr %9, i64 112
  %27 = load float, ptr %26, align 8, !tbaa !41
  %28 = getelementptr inbounds nuw i8, ptr %9, i64 116
  %29 = load float, ptr %28, align 4, !tbaa !39
  %30 = fcmp reassoc nsz arcp contract afn oeq float %27, %29
  %or.cond = select i1 %25, i1 %30, i1 false
  br i1 %or.cond, label %56, label %._crit_edge

._crit_edge:                                      ; preds = %20
  %31 = fpext reassoc nsz arcp contract afn float %22 to double
  %32 = fpext reassoc nsz arcp contract afn float %24 to double
  %33 = tail call reassoc nsz arcp contract afn double @llvm.minnum.f64(double %31, double %32)
  %34 = fptrunc reassoc nsz arcp contract afn double %33 to float
  %35 = tail call reassoc nsz arcp contract afn double @llvm.maxnum.f64(double %31, double %32)
  %36 = fptrunc reassoc nsz arcp contract afn double %35 to float
  %37 = fpext reassoc nsz arcp contract afn float %27 to double
  %38 = fpext reassoc nsz arcp contract afn float %29 to double
  %39 = tail call reassoc nsz arcp contract afn double @llvm.minnum.f64(double %37, double %38)
  %40 = fptrunc reassoc nsz arcp contract afn double %39 to float
  %41 = tail call reassoc nsz arcp contract afn double @llvm.maxnum.f64(double %37, double %38)
  %42 = fptrunc reassoc nsz arcp contract afn double %41 to float
  %43 = fpext reassoc nsz arcp contract afn float %6 to double
  %44 = fdiv reassoc nsz arcp contract afn double 1.000000e+00, %43
  tail call void @cairo_set_line_width(ptr noundef %1, double noundef %44) #21
  tail call void @cairo_set_source_rgb(ptr noundef %1, double noundef 2.000000e-01, double noundef 2.000000e-01, double noundef 2.000000e-01) #21
  tail call void @cairo_set_line_cap(ptr noundef %1, i32 noundef 1) #21
  %45 = fpext reassoc nsz arcp contract afn float %34 to double
  %46 = fpext reassoc nsz arcp contract afn float %40 to double
  %47 = fsub reassoc nsz arcp contract afn float %36, %34
  %48 = fpext reassoc nsz arcp contract afn float %47 to double
  %49 = fsub reassoc nsz arcp contract afn float %42, %40
  %50 = fpext reassoc nsz arcp contract afn float %49 to double
  tail call void @cairo_rectangle(ptr noundef %1, double noundef %45, double noundef %46, double noundef %48, double noundef %50) #21
  tail call void @cairo_stroke(ptr noundef %1) #21
  tail call void @cairo_translate(ptr noundef %1, double noundef %44, double noundef %44) #21
  tail call void @cairo_set_source_rgb(ptr noundef %1, double noundef 8.000000e-01, double noundef 8.000000e-01, double noundef 8.000000e-01) #21
  %51 = fadd reassoc nsz arcp contract afn double %44, %45
  %52 = fdiv reassoc nsz arcp contract afn double 3.000000e+00, %43
  %53 = fsub reassoc nsz arcp contract afn double %48, %52
  %54 = fdiv reassoc nsz arcp contract afn double 2.000000e+00, %43
  %55 = fsub reassoc nsz arcp contract afn double %50, %54
  tail call void @cairo_rectangle(ptr noundef %1, double noundef %51, double noundef %46, double noundef %53, double noundef %55) #21
  tail call void @cairo_stroke(ptr noundef %1) #21
  br label %56

56:                                               ; preds = %20, %14, %17, %7, %11, %._crit_edge
  ret void
}